target datalayout = "e-m:e-p270:32:32-p271:32:32-p272:64:64-i64:64-i128:128-f80:128-n8:16:32:64-S128"
target triple = "x86_64-unknown-linux-gnu"

%struct.BlockdevCreateOptionsVmdk = type { ptr, i64, i8, ptr, i8, i32, ptr, i8, i32, ptr, ptr, i8, i8 }
%struct.BlockdevRefList = type { ptr, ptr }

@.str.24 = private unnamed_addr constant [21 x i8] c"../qemu/block/vmdk.c\00", align 1
@__func__.vmdk_co_create_cb = private unnamed_addr constant [18 x i8] c"vmdk_co_create_cb\00", align 1
@.str.104 = private unnamed_addr constant [26 x i8] c"Extent [%d] not specified\00", align 1

; Function Attrs: nounwind sspstrong uwtable
define internal ptr @vmdk_co_create_cb(i64 noundef %size, i32 noundef %idx, i1 noundef zeroext %flat, i1 noundef zeroext %split, i1 noundef zeroext %compress, i1 noundef zeroext %zeroed_grain, ptr noundef %opaque, ptr noundef %errp) #0 {
entry:
  %retval = alloca ptr, align 8
  %size.addr = alloca i64, align 8
  %idx.addr = alloca i32, align 4
  %flat.addr = alloca i8, align 1
  %split.addr = alloca i8, align 1
  %compress.addr = alloca i8, align 1
  %zeroed_grain.addr = alloca i8, align 1
  %opaque.addr = alloca ptr, align 8
  %errp.addr = alloca ptr, align 8
  %ret = alloca i32, align 4
  %bs = alloca ptr, align 8
  %blk = alloca ptr, align 8
  %opts = alloca ptr, align 8
  %i = alloca i32, align 4
  %list = alloca ptr, align 8
  store i64 %size, ptr %size.addr, align 8
  store i32 %idx, ptr %idx.addr, align 4
  %frombool = zext i1 %flat to i8
  store i8 %frombool, ptr %flat.addr, align 1
  %frombool1 = zext i1 %split to i8
  store i8 %frombool1, ptr %split.addr, align 1
  %frombool2 = zext i1 %compress to i8
  store i8 %frombool2, ptr %compress.addr, align 1
  %frombool3 = zext i1 %zeroed_grain to i8
  store i8 %frombool3, ptr %zeroed_grain.addr, align 1
  store ptr %opaque, ptr %opaque.addr, align 8
  store ptr %errp, ptr %errp.addr, align 8
  %0 = load ptr, ptr %opaque.addr, align 8
  store ptr %0, ptr %opts, align 8
  %1 = load i32, ptr %idx.addr, align 4
  %cmp = icmp eq i32 %1, 0
  br i1 %cmp, label %if.then, label %if.else

if.then:                                          ; preds = %entry
  %2 = load ptr, ptr %opts, align 8
  %file = getelementptr inbounds %struct.BlockdevCreateOptionsVmdk, ptr %2, i32 0, i32 0
  %3 = load ptr, ptr %file, align 8
  %4 = load ptr, ptr %errp.addr, align 8
  %call = call ptr @bdrv_co_open_blockdev_ref(ptr noundef %3, ptr noundef %4)
  store ptr %call, ptr %bs, align 8
  br label %if.end12

if.else:                                          ; preds = %entry
  %5 = load ptr, ptr %opts, align 8
  %extents = getelementptr inbounds %struct.BlockdevCreateOptionsVmdk, ptr %5, i32 0, i32 3
  %6 = load ptr, ptr %extents, align 8
  store ptr %6, ptr %list, align 8
  store i32 1, ptr %i, align 4
  br label %for.cond

for.cond:                                         ; preds = %for.inc, %if.else
  %7 = load i32, ptr %i, align 4
  %8 = load i32, ptr %idx.addr, align 4
  %cmp4 = icmp slt i32 %7, %8
  br i1 %cmp4, label %for.body, label %for.end

for.body:                                         ; preds = %for.cond
  %9 = load ptr, ptr %list, align 8
  %tobool = icmp ne ptr %9, null
  br i1 %tobool, label %lor.lhs.false, label %if.then6

lor.lhs.false:                                    ; preds = %for.body
  %10 = load ptr, ptr %list, align 8
  %next = getelementptr inbounds %struct.BlockdevRefList, ptr %10, i32 0, i32 0
  %11 = load ptr, ptr %next, align 8
  %tobool5 = icmp ne ptr %11, null
  br i1 %tobool5, label %if.end, label %if.then6

if.then6:                                         ; preds = %lor.lhs.false, %for.body
  %12 = load ptr, ptr %errp.addr, align 8
  %13 = load i32, ptr %i, align 4
  call void (ptr, ptr, i32, ptr, ptr, ...) @error_setg_internal(ptr noundef %12, ptr noundef @.str.24, i32 noundef 2824, ptr noundef @__func__.vmdk_co_create_cb, ptr noundef @.str.104, i32 noundef %13)
  store ptr null, ptr %retval, align 8
  br label %return

if.end:                                           ; preds = %lor.lhs.false
  %14 = load ptr, ptr %list, align 8
  %next7 = getelementptr inbounds %struct.BlockdevRefList, ptr %14, i32 0, i32 0
  %15 = load ptr, ptr %next7, align 8
  store ptr %15, ptr %list, align 8
  br label %for.inc

for.inc:                                          ; preds = %if.end
  %16 = load i32, ptr %i, align 4
  %inc = add i32 %16, 1
  store i32 %inc, ptr %i, align 4
  br label %for.cond, !llvm.loop !25

for.end:                                          ; preds = %for.cond
  %17 = load ptr, ptr %list, align 8
  %tobool8 = icmp ne ptr %17, null
  br i1 %tobool8, label %if.end10, label %if.then9

if.then9:                                         ; preds = %for.end
  %18 = load ptr, ptr %errp.addr, align 8
  %19 = load i32, ptr %idx.addr, align 4
  %sub = sub i32 %19, 1
  call void (ptr, ptr, i32, ptr, ptr, ...) @error_setg_internal(ptr noundef %18, ptr noundef @.str.24, i32 noundef 2830, ptr noundef @__func__.vmdk_co_create_cb, ptr noundef @.str.104, i32 noundef %sub)
  store ptr null, ptr %retval, align 8
  br label %return

if.end10:                                         ; preds = %for.end
  %20 = load ptr, ptr %list, align 8
  %value = getelementptr inbounds %struct.BlockdevRefList, ptr %20, i32 0, i32 1
  %21 = load ptr, ptr %value, align 8
  %22 = load ptr, ptr %errp.addr, align 8
  %call11 = call ptr @bdrv_co_open_blockdev_ref(ptr noundef %21, ptr noundef %22)
  store ptr %call11, ptr %bs, align 8
  br label %if.end12

if.end12:                                         ; preds = %if.end10, %if.then
  %23 = load ptr, ptr %bs, align 8
  %tobool13 = icmp ne ptr %23, null
  br i1 %tobool13, label %if.end15, label %if.then14

if.then14:                                        ; preds = %if.end12
  store ptr null, ptr %retval, align 8
  br label %return

if.end15:                                         ; preds = %if.end12
  %24 = load ptr, ptr %bs, align 8
  %25 = load ptr, ptr %errp.addr, align 8
  %call16 = call ptr @blk_co_new_with_bs(ptr noundef %24, i64 noundef 11, i64 noundef 15, ptr noundef %25)
  store ptr %call16, ptr %blk, align 8
  %26 = load ptr, ptr %blk, align 8
  %tobool17 = icmp ne ptr %26, null
  br i1 %tobool17, label %if.end19, label %if.then18

if.then18:                                        ; preds = %if.end15
  store ptr null, ptr %retval, align 8
  br label %return

if.end19:                                         ; preds = %if.end15
  %27 = load ptr, ptr %blk, align 8
  call void @blk_set_allow_write_beyond_eof(ptr noundef %27, i1 noundef zeroext true)
  %28 = load ptr, ptr %bs, align 8
  call void @bdrv_co_unref(ptr noundef %28)
  %29 = load i64, ptr %size.addr, align 8
  %cmp20 = icmp ne i64 %29, -1
  br i1 %cmp20, label %if.then21, label %if.end29

if.then21:                                        ; preds = %if.end19
  %30 = load ptr, ptr %blk, align 8
  %31 = load i64, ptr %size.addr, align 8
  %32 = load i8, ptr %flat.addr, align 1
  %tobool22 = trunc i8 %32 to i1
  %33 = load i8, ptr %compress.addr, align 1
  %tobool23 = trunc i8 %33 to i1
  %34 = load i8, ptr %zeroed_grain.addr, align 1
  %tobool24 = trunc i8 %34 to i1
  %35 = load ptr, ptr %errp.addr, align 8
  %call25 = call i32 @vmdk_init_extent(ptr noundef %30, i64 noundef %31, i1 noundef zeroext %tobool22, i1 noundef zeroext %tobool23, i1 noundef zeroext %tobool24, ptr noundef %35)
  store i32 %call25, ptr %ret, align 4
  %36 = load i32, ptr %ret, align 4
  %tobool26 = icmp ne i32 %36, 0
  br i1 %tobool26, label %if.then27, label %if.end28

if.then27:                                        ; preds = %if.then21
  %37 = load ptr, ptr %blk, align 8
  call void @blk_co_unref(ptr noundef %37)
  store ptr null, ptr %blk, align 8
  br label %if.end28

if.end28:                                         ; preds = %if.then27, %if.then21
  br label %if.end29

if.end29:                                         ; preds = %if.end28, %if.end19
  %38 = load ptr, ptr %blk, align 8
  store ptr %38, ptr %retval, align 8
  br label %return

return:                                           ; preds = %if.end29, %if.then18, %if.then14, %if.then9, %if.then6
  %39 = load ptr, ptr %retval, align 8
  ret ptr %39
}