; Function Attrs: nounwind sspstrong uwtable
define internal ptr @vmdk_co_create_cb(i64 noundef %size, i32 noundef %idx, i1 noundef zeroext %flat, i1 zeroext %split, i1 noundef zeroext %compress, i1 noundef zeroext %zeroed_grain, ptr noundef readonly captures(none) %opaque, ptr noundef %errp) #0 {
entry:
  %cmp = icmp eq i32 %idx, 0
  br i1 %cmp, label %if.end12, label %if.else

if.else:                                          ; preds = %entry
  %extents = getelementptr inbounds nuw i8, ptr %opaque, i64 24
  %0 = load ptr, ptr %extents, align 8
  %cmp424 = icmp sgt i32 %idx, 1
  br i1 %cmp424, label %for.body, label %for.end

for.body:                                         ; preds = %if.else, %if.end
  %list.026 = phi ptr [ %1, %if.end ], [ %0, %if.else ]
  %i.025 = phi i32 [ %inc, %if.end ], [ 1, %if.else ]
  %tobool.not = icmp eq ptr %list.026, null
  br i1 %tobool.not, label %if.then6, label %lor.lhs.false

lor.lhs.false:                                    ; preds = %for.body
  %1 = load ptr, ptr %list.026, align 8
  %tobool5.not = icmp eq ptr %1, null
  br i1 %tobool5.not, label %if.then6, label %if.end

if.then6:                                         ; preds = %lor.lhs.false, %for.body
  tail call void (ptr, ptr, i32, ptr, ptr, ...) @error_setg_internal(ptr noundef %errp, ptr noundef nonnull @.str.24, i32 noundef 2824, ptr noundef nonnull @__func__.vmdk_co_create_cb, ptr noundef nonnull @.str.104, i32 noundef %i.025) #15
  br label %return

if.end:                                           ; preds = %lor.lhs.false
  %inc = add nuw nsw i32 %i.025, 1
  %exitcond.not = icmp eq i32 %inc, %idx
  br i1 %exitcond.not, label %if.end10, label %for.body, !llvm.loop !24

for.end:                                          ; preds = %if.else
  %tobool8.not = icmp eq ptr %0, null
  br i1 %tobool8.not, label %if.then9, label %if.end10

if.then9:                                         ; preds = %for.end
  %sub = add i32 %idx, -1
  tail call void (ptr, ptr, i32, ptr, ptr, ...) @error_setg_internal(ptr noundef %errp, ptr noundef nonnull @.str.24, i32 noundef 2830, ptr noundef nonnull @__func__.vmdk_co_create_cb, ptr noundef nonnull @.str.104, i32 noundef %sub) #15
  br label %return

if.end10:                                         ; preds = %if.end, %for.end
  %list.0.lcssa31 = phi ptr [ %0, %for.end ], [ %1, %if.end ]
  %value = getelementptr inbounds nuw i8, ptr %list.0.lcssa31, i64 8
  br label %if.end12

if.end12:                                         ; preds = %entry, %if.end10
  %.sink.in = phi ptr [ %value, %if.end10 ], [ %opaque, %entry ]
  %.sink = load ptr, ptr %.sink.in, align 8
  %call11 = tail call ptr @bdrv_co_open_blockdev_ref(ptr noundef %.sink, ptr noundef %errp) #15
  %tobool13.not = icmp eq ptr %call11, null
  br i1 %tobool13.not, label %return, label %if.end15

if.end15:                                         ; preds = %if.end12
  %call16 = tail call ptr @blk_co_new_with_bs(ptr noundef nonnull %call11, i64 noundef 11, i64 noundef 15, ptr noundef %errp) #15
  %tobool17.not = icmp eq ptr %call16, null
  br i1 %tobool17.not, label %return, label %if.end19

if.end19:                                         ; preds = %if.end15
  tail call void @blk_set_allow_write_beyond_eof(ptr noundef nonnull %call16, i1 noundef zeroext true) #15
  tail call void @bdrv_co_unref(ptr noundef nonnull %call11) #15
  %cmp20.not = icmp eq i64 %size, -1
  br i1 %cmp20.not, label %return, label %if.then21

if.then21:                                        ; preds = %if.end19
  %call25 = tail call i32 @vmdk_init_extent(ptr noundef nonnull %call16, i64 noundef %size, i1 noundef zeroext %flat, i1 noundef zeroext %compress, i1 noundef zeroext %zeroed_grain, ptr noundef %errp)
  %tobool26.not = icmp eq i32 %call25, 0
  br i1 %tobool26.not, label %return, label %if.then27

if.then27:                                        ; preds = %if.then21
  tail call void @blk_co_unref(ptr noundef nonnull %call16) #15
  br label %return

return:                                           ; preds = %if.end19, %if.then27, %if.then21, %if.end15, %if.end12, %if.then9, %if.then6
  %retval.0 = phi ptr [ null, %if.then6 ], [ null, %if.then9 ], [ null, %if.end12 ], [ null, %if.end15 ], [ null, %if.then27 ], [ %call16, %if.then21 ], [ %call16, %if.end19 ]
  ret ptr %retval.0
}